; Function Attrs: mustprogress nounwind uwtable
define dso_local void @_ZNK5clang7CodeGen7ABIInfo23appendAttributeManglingEPNS_17TargetVersionAttrERN4llvm11raw_ostreamE(ptr noundef nonnull align 8 dereferenceable(20) %0, ptr nocapture noundef readonly %1, ptr noundef nonnull align 8 dereferenceable(48) %2) unnamed_addr #3 align 2 {
  %4 = getelementptr inbounds nuw i8, ptr %1, i64 40
  %5 = load ptr, ptr %4, align 8
  %6 = getelementptr inbounds nuw i8, ptr %1, i64 36
  %7 = load i32, ptr %6, align 4
  %8 = zext i32 %7 to i64
  %9 = load ptr, ptr %0, align 8
  %10 = getelementptr inbounds i8, ptr %9, i64 96
  %11 = load ptr, ptr %10, align 8
  tail call void %11(ptr noundef nonnull align 8 dereferenceable(20) %0, ptr %5, i64 %8, ptr noundef nonnull align 8 dereferenceable(48) %2) #17
  ret void
}